target datalayout = "e-m:e-p270:32:32-p271:32:32-p272:64:64-i64:64-i128:128-f80:128-n8:16:32:64-S128"
target triple = "x86_64-pc-linux-gnu"

%class.Klass = type <{ %class.Metadata, i32, i32, i32, i32, ptr, ptr, ptr, [8 x ptr], %class.OopHandle, ptr, ptr, ptr, ptr, ptr, i32, %class.AccessFlags, i64, i64, i8, i8, i16, i16, [2 x i8], i32, [4 x i8] }>
%class.Metadata = type { ptr }
%class.OopHandle = type { ptr }
%class.AccessFlags = type { i32 }
%class.ThreadShadow = type <{ ptr, ptr, ptr, i32, [4 x i8] }>

@.str = private unnamed_addr constant [41 x i8] c"src/hotspot/share/runtime/reflection.cpp\00", align 1
@g_assert_poison = external global ptr, align 8
@.str.12 = private unnamed_addr constant [63 x i8] c"guarantee(resolved_class->is_subclass_of(member_class)) failed\00", align 1
@.str.13 = private unnamed_addr constant [9 x i8] c"must be!\00", align 1
@_ZN9vmClasses8_klassesE = external global [0 x ptr], align 8

; Function Attrs: mustprogress nounwind uwtable
define linkonce_odr hidden noundef ptr @_ZN9vmClasses11check_klassEP13InstanceKlass(ptr noundef %0) #1 comdat align 2 {
  %2 = alloca ptr, align 8
  store ptr %0, ptr %2, align 8
  %3 = load ptr, ptr %2, align 8
  ret ptr %3
}

; Function Attrs: mustprogress nounwind uwtable
define linkonce_odr hidden noundef zeroext i1 @_ZNK11AccessFlags12is_interfaceEv(ptr noundef nonnull align 4 dereferenceable(4) %0) #1 comdat align 2 {
  %2 = alloca ptr, align 8
  store ptr %0, ptr %2, align 8
  %3 = load ptr, ptr %2, align 8
  %4 = getelementptr inbounds %class.AccessFlags, ptr %3, i32 0, i32 0
  %5 = load i32, ptr %4, align 4
  %6 = and i32 %5, 512
  %7 = icmp ne i32 %6, 0
  ret i1 %7
}

; Function Attrs: mustprogress nounwind uwtable
define linkonce_odr hidden noundef ptr @_ZN9vmClasses50reflect_SerializationConstructorAccessorImpl_klassEv() #1 comdat align 2 {
  %1 = load ptr, ptr getelementptr inbounds ([0 x ptr], ptr @_ZN9vmClasses8_klassesE, i64 0, i64 56), align 8
  %2 = call noundef ptr @_ZN9vmClasses11check_klassEP13InstanceKlass(ptr noundef %1)
  ret ptr %2
}

; Function Attrs: mustprogress nounwind uwtable
define linkonce_odr hidden noundef zeroext i1 @_ZNK12ThreadShadow21has_pending_exceptionEv(ptr noundef nonnull align 8 dereferenceable(28) %0) #1 comdat align 2 {
  %2 = alloca ptr, align 8
  store ptr %0, ptr %2, align 8
  %3 = load ptr, ptr %2, align 8
  %4 = getelementptr inbounds %class.ThreadShadow, ptr %3, i32 0, i32 1
  %5 = load ptr, ptr %4, align 8
  %6 = icmp ne ptr %5, null
  ret i1 %6
}

; Function Attrs: mustprogress nounwind uwtable
define linkonce_odr hidden noundef ptr @_ZN13InstanceKlass4castEPK5Klass(ptr noundef %0) #1 comdat align 2 {
  %2 = alloca ptr, align 8
  store ptr %0, ptr %2, align 8
  %3 = load ptr, ptr %2, align 8
  ret ptr %3
}

; Function Attrs: mustprogress nounwind uwtable
define linkonce_odr hidden noundef zeroext i1 @_ZNK5Klass17is_instance_klassEv(ptr noundef nonnull align 8 dereferenceable(196) %0) #1 comdat align 2 {
  %2 = alloca ptr, align 8
  store ptr %0, ptr %2, align 8
  %3 = load ptr, ptr %2, align 8
  %4 = getelementptr inbounds %class.Klass, ptr %3, i32 0, i32 2
  %5 = load i32, ptr %4, align 4
  %6 = icmp sle i32 %5, 4
  ret i1 %6
}

; Function Attrs: mustprogress nounwind uwtable
define hidden noundef zeroext i1 @_ZN10Reflection21is_same_class_packageEPK5KlassS2_(ptr noundef %0, ptr noundef %1) #1 align 2 {
  %3 = alloca ptr, align 8
  %4 = alloca ptr, align 8
  store ptr %0, ptr %3, align 8
  store ptr %1, ptr %4, align 8
  %5 = load ptr, ptr %3, align 8
  %6 = call noundef ptr @_ZN13InstanceKlass4castEPK5Klass(ptr noundef %5)
  %7 = load ptr, ptr %4, align 8
  %8 = call noundef zeroext i1 @_ZNK13InstanceKlass21is_same_class_packageEPK5Klass(ptr noundef nonnull align 8 dereferenceable(464) %6, ptr noundef %7)
  ret i1 %8
}

; Function Attrs: mustprogress nounwind uwtable
define linkonce_odr hidden noundef zeroext i1 @_ZNK11AccessFlags10is_privateEv(ptr noundef nonnull align 4 dereferenceable(4) %0) #1 comdat align 2 {
  %2 = alloca ptr, align 8
  store ptr %0, ptr %2, align 8
  %3 = load ptr, ptr %2, align 8
  %4 = getelementptr inbounds %class.AccessFlags, ptr %3, i32 0, i32 0
  %5 = load i32, ptr %4, align 4
  %6 = and i32 %5, 2
  %7 = icmp ne i32 %6, 0
  ret i1 %7
}

; Function Attrs: mustprogress nounwind uwtable
define linkonce_odr hidden noundef zeroext i1 @_ZNK11AccessFlags9is_staticEv(ptr noundef nonnull align 4 dereferenceable(4) %0) #1 comdat align 2 {
  %2 = alloca ptr, align 8
  store ptr %0, ptr %2, align 8
  %3 = load ptr, ptr %2, align 8
  %4 = getelementptr inbounds %class.AccessFlags, ptr %3, i32 0, i32 0
  %5 = load i32, ptr %4, align 4
  %6 = and i32 %5, 8
  %7 = icmp ne i32 %6, 0
  ret i1 %7
}

; Function Attrs: mustprogress nounwind uwtable
define linkonce_odr hidden noundef zeroext i1 @_ZNK5Klass12is_interfaceEv(ptr noundef nonnull align 8 dereferenceable(196) %0) #1 comdat align 2 {
  %2 = alloca ptr, align 8
  store ptr %0, ptr %2, align 8
  %3 = load ptr, ptr %2, align 8
  %4 = getelementptr inbounds %class.Klass, ptr %3, i32 0, i32 16
  %5 = call noundef zeroext i1 @_ZNK11AccessFlags12is_interfaceEv(ptr noundef nonnull align 4 dereferenceable(4) %4)
  ret i1 %5
}

; Function Attrs: mustprogress nounwind uwtable
define linkonce_odr hidden noundef zeroext i1 @_ZNK11AccessFlags12is_protectedEv(ptr noundef nonnull align 4 dereferenceable(4) %0) #1 comdat align 2 {
  %2 = alloca ptr, align 8
  store ptr %0, ptr %2, align 8
  %3 = load ptr, ptr %2, align 8
  %4 = getelementptr inbounds %class.AccessFlags, ptr %3, i32 0, i32 0
  %5 = load i32, ptr %4, align 4
  %6 = and i32 %5, 4
  %7 = icmp ne i32 %6, 0
  ret i1 %7
}

; Function Attrs: mustprogress nounwind uwtable
define linkonce_odr hidden noundef zeroext i1 @_ZNK11AccessFlags9is_publicEv(ptr noundef nonnull align 4 dereferenceable(4) %0) #1 comdat align 2 {
  %2 = alloca ptr, align 8
  store ptr %0, ptr %2, align 8
  %3 = load ptr, ptr %2, align 8
  %4 = getelementptr inbounds %class.AccessFlags, ptr %3, i32 0, i32 0
  %5 = load i32, ptr %4, align 4
  %6 = and i32 %5, 1
  %7 = icmp ne i32 %6, 0
  ret i1 %7
}

; Function Attrs: mustprogress nounwind uwtable
define hidden noundef zeroext i1 @_ZN10Reflection20verify_member_accessEPK5KlassS2_S2_11AccessFlagsbbP10JavaThread(ptr noundef %0, ptr noundef %1, ptr noundef %2, i32 %3, i1 noundef zeroext %4, i1 noundef zeroext %5, ptr noundef %6) #1 align 2 {
  %8 = alloca i1, align 1
  %9 = alloca %class.AccessFlags, align 4
  %10 = alloca ptr, align 8
  %11 = alloca ptr, align 8
  %12 = alloca ptr, align 8
  %13 = alloca i8, align 1
  %14 = alloca i8, align 1
  %15 = alloca ptr, align 8
  %16 = alloca ptr, align 8
  %17 = alloca ptr, align 8
  %18 = alloca i8, align 1
  %19 = getelementptr inbounds %class.AccessFlags, ptr %9, i32 0, i32 0
  store i32 %3, ptr %19, align 4
  store ptr %0, ptr %10, align 8
  store ptr %1, ptr %11, align 8
  store ptr %2, ptr %12, align 8
  %20 = zext i1 %4 to i8
  store i8 %20, ptr %13, align 1
  %21 = zext i1 %5 to i8
  store i8 %21, ptr %14, align 1
  store ptr %6, ptr %15, align 8
  %22 = load ptr, ptr %10, align 8
  %23 = icmp eq ptr %22, null
  br i1 %23, label %30, label %24

24:                                               ; preds = %7
  %25 = load ptr, ptr %10, align 8
  %26 = load ptr, ptr %12, align 8
  %27 = icmp eq ptr %25, %26
  br i1 %27, label %30, label %28

28:                                               ; preds = %24
  %29 = call noundef zeroext i1 @_ZNK11AccessFlags9is_publicEv(ptr noundef nonnull align 4 dereferenceable(4) %9)
  br i1 %29, label %30, label %31

30:                                               ; preds = %28, %24, %7
  store i1 true, ptr %8, align 1
  br label %123

31:                                               ; preds = %28
  %32 = load ptr, ptr %10, align 8
  %33 = load ptr, ptr %12, align 8
  %34 = icmp eq ptr %32, %33
  br i1 %34, label %35, label %36

35:                                               ; preds = %31
  store i1 true, ptr %8, align 1
  br label %123

36:                                               ; preds = %31
  %37 = call noundef zeroext i1 @_ZNK11AccessFlags12is_protectedEv(ptr noundef nonnull align 4 dereferenceable(4) %9)
  br i1 %37, label %38, label %70

38:                                               ; preds = %36
  %39 = load i8, ptr %14, align 1
  %40 = trunc i8 %39 to i1
  br i1 %40, label %69, label %41

41:                                               ; preds = %38
  %42 = load ptr, ptr %10, align 8
  %43 = call noundef zeroext i1 @_ZNK5Klass12is_interfaceEv(ptr noundef nonnull align 8 dereferenceable(196) %42)
  br i1 %43, label %68, label %44

44:                                               ; preds = %41
  %45 = load ptr, ptr %10, align 8
  %46 = load ptr, ptr %12, align 8
  %47 = call noundef zeroext i1 @_ZNK5Klass14is_subclass_ofEPKS_(ptr noundef nonnull align 8 dereferenceable(196) %45, ptr noundef %46)
  br i1 %47, label %48, label %68

48:                                               ; preds = %44
  %49 = call noundef zeroext i1 @_ZNK11AccessFlags9is_staticEv(ptr noundef nonnull align 4 dereferenceable(4) %9)
  br i1 %49, label %66, label %50

50:                                               ; preds = %48
  %51 = load ptr, ptr %10, align 8
  %52 = load ptr, ptr %11, align 8
  %53 = icmp eq ptr %51, %52
  br i1 %53, label %66, label %54

54:                                               ; preds = %50
  %55 = load ptr, ptr %12, align 8
  %56 = load ptr, ptr %11, align 8
  %57 = icmp eq ptr %55, %56
  br i1 %57, label %66, label %58

58:                                               ; preds = %54
  %59 = load ptr, ptr %10, align 8
  %60 = load ptr, ptr %11, align 8
  %61 = call noundef zeroext i1 @_ZNK5Klass14is_subclass_ofEPKS_(ptr noundef nonnull align 8 dereferenceable(196) %59, ptr noundef %60)
  br i1 %61, label %66, label %62

62:                                               ; preds = %58
  %63 = load ptr, ptr %11, align 8
  %64 = load ptr, ptr %10, align 8
  %65 = call noundef zeroext i1 @_ZNK5Klass14is_subclass_ofEPKS_(ptr noundef nonnull align 8 dereferenceable(196) %63, ptr noundef %64)
  br i1 %65, label %66, label %67

66:                                               ; preds = %62, %58, %54, %50, %48
  store i1 true, ptr %8, align 1
  br label %123

67:                                               ; preds = %62
  br label %68

68:                                               ; preds = %67, %44, %41
  br label %69

69:                                               ; preds = %68, %38
  br label %70

70:                                               ; preds = %69, %36
  %71 = call noundef zeroext i1 @_ZNK11AccessFlags10is_privateEv(ptr noundef nonnull align 4 dereferenceable(4) %9)
  br i1 %71, label %77, label %72

72:                                               ; preds = %70
  %73 = load ptr, ptr %10, align 8
  %74 = load ptr, ptr %12, align 8
  %75 = call noundef zeroext i1 @_ZN10Reflection21is_same_class_packageEPK5KlassS2_(ptr noundef %73, ptr noundef %74)
  br i1 %75, label %76, label %77

76:                                               ; preds = %72
  store i1 true, ptr %8, align 1
  br label %123

77:                                               ; preds = %72, %70
  %78 = call noundef zeroext i1 @_ZNK11AccessFlags10is_privateEv(ptr noundef nonnull align 4 dereferenceable(4) %9)
  br i1 %78, label %79, label %112

79:                                               ; preds = %77
  %80 = load ptr, ptr %10, align 8
  %81 = call noundef zeroext i1 @_ZNK5Klass17is_instance_klassEv(ptr noundef nonnull align 8 dereferenceable(196) %80)
  br i1 %81, label %82, label %111

82:                                               ; preds = %79
  %83 = load ptr, ptr %12, align 8
  %84 = call noundef zeroext i1 @_ZNK5Klass17is_instance_klassEv(ptr noundef nonnull align 8 dereferenceable(196) %83)
  br i1 %84, label %85, label %111

85:                                               ; preds = %82
  %86 = load ptr, ptr %10, align 8
  %87 = call noundef ptr @_ZN13InstanceKlass4castEPK5Klass(ptr noundef %86)
  store ptr %87, ptr %16, align 8
  %88 = load ptr, ptr %12, align 8
  %89 = call noundef ptr @_ZN13InstanceKlass4castEPK5Klass(ptr noundef %88)
  store ptr %89, ptr %17, align 8
  %90 = load ptr, ptr %16, align 8
  %91 = load ptr, ptr %17, align 8
  %92 = load ptr, ptr %15, align 8
  %93 = call noundef zeroext i1 @_ZN13InstanceKlass22has_nestmate_access_toEPS_P10JavaThread(ptr noundef nonnull align 8 dereferenceable(464) %90, ptr noundef %91, ptr noundef %92)
  %94 = zext i1 %93 to i8
  store i8 %94, ptr %18, align 1
  %95 = load ptr, ptr %15, align 8
  %96 = call noundef zeroext i1 @_ZNK12ThreadShadow21has_pending_exceptionEv(ptr noundef nonnull align 8 dereferenceable(28) %95)
  br i1 %96, label %97, label %98

97:                                               ; preds = %85
  store i1 false, ptr %8, align 1
  br label %123

98:                                               ; preds = %85
  %99 = load i8, ptr %18, align 1
  %100 = trunc i8 %99 to i1
  br i1 %100, label %101, label %110

101:                                              ; preds = %98
  br label %102

102:                                              ; preds = %101
  %103 = load ptr, ptr %11, align 8
  %104 = load ptr, ptr %12, align 8
  %105 = call noundef zeroext i1 @_ZNK5Klass14is_subclass_ofEPKS_(ptr noundef nonnull align 8 dereferenceable(196) %103, ptr noundef %104)
  br i1 %105, label %108, label %106

106:                                              ; preds = %102
  %107 = load ptr, ptr @g_assert_poison, align 8
  store i8 88, ptr %107, align 1
  call void (ptr, i32, ptr, ptr, ...) @_Z15report_vm_errorPKciS0_S0_z(ptr noundef @.str, i32 noundef 655, ptr noundef @.str.12, ptr noundef @.str.13) #11
  unreachable

108:                                              ; preds = %102
  br label %109

109:                                              ; preds = %108
  store i1 true, ptr %8, align 1
  br label %123

110:                                              ; preds = %98
  br label %111

111:                                              ; preds = %110, %82, %79
  br label %112

112:                                              ; preds = %111, %77
  %113 = load ptr, ptr %10, align 8
  %114 = call noundef ptr @_ZN9vmClasses50reflect_SerializationConstructorAccessorImpl_klassEv()
  %115 = call noundef zeroext i1 @_ZNK5Klass14is_subclass_ofEPKS_(ptr noundef nonnull align 8 dereferenceable(196) %113, ptr noundef %114)
  br i1 %115, label %116, label %117

116:                                              ; preds = %112
  store i1 true, ptr %8, align 1
  br label %123

117:                                              ; preds = %112
  %118 = load ptr, ptr %10, align 8
  %119 = load ptr, ptr %12, align 8
  %120 = load i8, ptr %13, align 1
  %121 = trunc i8 %120 to i1
  %122 = call noundef zeroext i1 @_ZL26can_relax_access_check_forPK5KlassS1_b(ptr noundef %118, ptr noundef %119, i1 noundef zeroext %121)
  store i1 %122, ptr %8, align 1
  br label %123

123:                                              ; preds = %117, %116, %109, %97, %76, %66, %35, %30
  %124 = load i1, ptr %8, align 1
  ret i1 %124
}