; Function Attrs: mustprogress nounwind uwtable
define hidden noundef zeroext i1 @_ZN10Reflection20verify_member_accessEPK5KlassS2_S2_11AccessFlagsbbP10JavaThread(ptr noundef %0, ptr noundef %1, ptr noundef %2, i32 %3, i1 noundef zeroext %4, i1 noundef zeroext %5, ptr noundef %6) local_unnamed_addr #0 align 2 {
  %8 = icmp eq ptr %0, null
  %9 = icmp eq ptr %0, %2
  %or.cond = or i1 %8, %9
  %10 = and i32 %3, 1
  %11 = icmp ne i32 %10, 0
  %or.cond44 = select i1 %or.cond, i1 true, i1 %11
  br i1 %or.cond44, label %55, label %12

12:                                               ; preds = %7
  %13 = and i32 %3, 4
  %.not45 = icmp eq i32 %13, 0
  %brmerge = or i1 %.not45, %5
  br i1 %brmerge, label %29, label %14

14:                                               ; preds = %12
  %15 = getelementptr inbounds i8, ptr %0, i64 164
  %16 = load i32, ptr %15, align 4
  %17 = and i32 %16, 512
  %.not = icmp eq i32 %17, 0
  br i1 %.not, label %18, label %29

18:                                               ; preds = %14
  %19 = tail call noundef zeroext i1 @_ZNK5Klass14is_subclass_ofEPKS_(ptr noundef nonnull align 8 dereferenceable(196) %0, ptr noundef %2) #13
  br i1 %19, label %20, label %29

20:                                               ; preds = %18
  %21 = and i32 %3, 8
  %22 = icmp ne i32 %21, 0
  %23 = icmp eq ptr %0, %1
  %or.cond37 = or i1 %23, %22
  %24 = icmp eq ptr %2, %1
  %or.cond38 = or i1 %24, %or.cond37
  br i1 %or.cond38, label %55, label %25

25:                                               ; preds = %20
  %26 = tail call noundef zeroext i1 @_ZNK5Klass14is_subclass_ofEPKS_(ptr noundef nonnull align 8 dereferenceable(196) %0, ptr noundef %1) #13
  br i1 %26, label %55, label %27

27:                                               ; preds = %25
  %28 = tail call noundef zeroext i1 @_ZNK5Klass14is_subclass_ofEPKS_(ptr noundef nonnull align 8 dereferenceable(196) %1, ptr noundef nonnull %0) #13
  br i1 %28, label %55, label %29

29:                                               ; preds = %12, %27, %18, %14
  %30 = and i32 %3, 2
  %.not46 = icmp eq i32 %30, 0
  br i1 %.not46, label %31, label %33

31:                                               ; preds = %29
  %32 = tail call noundef zeroext i1 @_ZNK13InstanceKlass21is_same_class_packageEPK5Klass(ptr noundef nonnull align 8 dereferenceable(464) %0, ptr noundef %2) #13
  br i1 %32, label %55, label %50

33:                                               ; preds = %29
  %34 = getelementptr inbounds i8, ptr %0, i64 12
  %35 = load i32, ptr %34, align 4
  %36 = icmp slt i32 %35, 5
  br i1 %36, label %37, label %50

37:                                               ; preds = %33
  %38 = getelementptr inbounds i8, ptr %2, i64 12
  %39 = load i32, ptr %38, align 4
  %40 = icmp slt i32 %39, 5
  br i1 %40, label %41, label %50

41:                                               ; preds = %37
  %42 = tail call noundef zeroext i1 @_ZN13InstanceKlass22has_nestmate_access_toEPS_P10JavaThread(ptr noundef nonnull align 8 dereferenceable(464) %0, ptr noundef nonnull %2, ptr noundef %6) #13
  %43 = getelementptr inbounds i8, ptr %6, i64 8
  %44 = load ptr, ptr %43, align 8
  %.not47 = icmp eq ptr %44, null
  br i1 %.not47, label %45, label %55

45:                                               ; preds = %41
  br i1 %42, label %46, label %50

46:                                               ; preds = %45
  %47 = tail call noundef zeroext i1 @_ZNK5Klass14is_subclass_ofEPKS_(ptr noundef nonnull align 8 dereferenceable(196) %1, ptr noundef nonnull %2) #13
  br i1 %47, label %55, label %48

48:                                               ; preds = %46
  %49 = load ptr, ptr @g_assert_poison, align 8
  store i8 88, ptr %49, align 1
  tail call void (ptr, i32, ptr, ptr, ...) @_Z15report_vm_errorPKciS0_S0_z(ptr noundef nonnull @.str, i32 noundef 655, ptr noundef nonnull @.str.12, ptr noundef nonnull @.str.13) #15
  unreachable

50:                                               ; preds = %31, %33, %37, %45
  %51 = load ptr, ptr getelementptr inbounds (i8, ptr @_ZN9vmClasses8_klassesE, i64 448), align 8
  %52 = tail call noundef zeroext i1 @_ZNK5Klass14is_subclass_ofEPKS_(ptr noundef nonnull align 8 dereferenceable(196) %0, ptr noundef %51) #13
  br i1 %52, label %55, label %53

53:                                               ; preds = %50
  %54 = tail call fastcc noundef zeroext i1 @_ZL26can_relax_access_check_forPK5KlassS1_b(ptr noundef nonnull %0, ptr noundef %2, i1 noundef zeroext %4)
  br label %55

55:                                               ; preds = %50, %46, %41, %31, %20, %25, %27, %7, %53
  %.0 = phi i1 [ %54, %53 ], [ true, %7 ], [ true, %27 ], [ true, %25 ], [ true, %20 ], [ true, %31 ], [ false, %41 ], [ true, %46 ], [ true, %50 ]
  ret i1 %.0
}